target datalayout = "e-m:e-p270:32:32-p271:32:32-p272:64:64-i64:64-i128:128-f80:128-n8:16:32:64-S128"
target triple = "x86_64-pc-linux-gnu"

%struct.UTrie2 = type { ptr, ptr, ptr, i32, i32, i16, i16, i32, i32, i32, i32, ptr, i32, i8, i8, i16, ptr }
%struct.UNewTrie2 = type { [544 x i32], [35488 x i32], ptr, i32, i32, i32, i32, i32, i32, i32, i32, i32, i8, [34852 x i32] }

; Function Attrs: mustprogress nounwind uwtable
define internal noundef i32 @_ZL5get32PK9UNewTrie2ia(ptr noundef %0, i32 noundef %1, i8 noundef signext %2) #1 {
  %4 = alloca i32, align 4
  %5 = alloca ptr, align 8
  %6 = alloca i32, align 4
  %7 = alloca i8, align 1
  %8 = alloca i32, align 4
  %9 = alloca i32, align 4
  %10 = alloca i32, align 4
  store ptr %0, ptr %5, align 8, !tbaa !24
  store i32 %1, ptr %6, align 4, !tbaa !8
  store i8 %2, ptr %7, align 1, !tbaa !25
  call void @llvm.lifetime.start.p0(i64 4, ptr %8) #8
  call void @llvm.lifetime.start.p0(i64 4, ptr %9) #8
  %11 = load i32, ptr %6, align 4, !tbaa !8
  %12 = load ptr, ptr %5, align 8, !tbaa !24
  %13 = getelementptr inbounds nuw %struct.UNewTrie2, ptr %12, i32 0, i32 11
  %14 = load i32, ptr %13, align 8, !tbaa !26
  %15 = icmp sge i32 %11, %14
  br i1 %15, label %16, label %34

16:                                               ; preds = %3
  %17 = load i32, ptr %6, align 4, !tbaa !8
  %18 = and i32 %17, -1024
  %19 = icmp eq i32 %18, 55296
  br i1 %19, label %20, label %23

20:                                               ; preds = %16
  %21 = load i8, ptr %7, align 1, !tbaa !25
  %22 = icmp ne i8 %21, 0
  br i1 %22, label %23, label %34

23:                                               ; preds = %20, %16
  %24 = load ptr, ptr %5, align 8, !tbaa !24
  %25 = getelementptr inbounds nuw %struct.UNewTrie2, ptr %24, i32 0, i32 2
  %26 = load ptr, ptr %25, align 8, !tbaa !28
  %27 = load ptr, ptr %5, align 8, !tbaa !24
  %28 = getelementptr inbounds nuw %struct.UNewTrie2, ptr %27, i32 0, i32 7
  %29 = load i32, ptr %28, align 8, !tbaa !29
  %30 = sub nsw i32 %29, 4
  %31 = sext i32 %30 to i64
  %32 = getelementptr inbounds i32, ptr %26, i64 %31
  %33 = load i32, ptr %32, align 4, !tbaa !8
  store i32 %33, ptr %4, align 4
  store i32 1, ptr %10, align 4
  br label %74

34:                                               ; preds = %20, %3
  %35 = load i32, ptr %6, align 4, !tbaa !8
  %36 = and i32 %35, -1024
  %37 = icmp eq i32 %36, 55296
  br i1 %37, label %38, label %45

38:                                               ; preds = %34
  %39 = load i8, ptr %7, align 1, !tbaa !25
  %40 = icmp ne i8 %39, 0
  br i1 %40, label %41, label %45

41:                                               ; preds = %38
  %42 = load i32, ptr %6, align 4, !tbaa !8
  %43 = ashr i32 %42, 5
  %44 = add nsw i32 320, %43
  store i32 %44, ptr %8, align 4, !tbaa !8
  br label %57

45:                                               ; preds = %38, %34
  %46 = load ptr, ptr %5, align 8, !tbaa !24
  %47 = getelementptr inbounds nuw %struct.UNewTrie2, ptr %46, i32 0, i32 0
  %48 = load i32, ptr %6, align 4, !tbaa !8
  %49 = ashr i32 %48, 11
  %50 = sext i32 %49 to i64
  %51 = getelementptr inbounds [544 x i32], ptr %47, i64 0, i64 %50
  %52 = load i32, ptr %51, align 4, !tbaa !8
  %53 = load i32, ptr %6, align 4, !tbaa !8
  %54 = ashr i32 %53, 5
  %55 = and i32 %54, 63
  %56 = add nsw i32 %52, %55
  store i32 %56, ptr %8, align 4, !tbaa !8
  br label %57

57:                                               ; preds = %45, %41
  %58 = load ptr, ptr %5, align 8, !tbaa !24
  %59 = getelementptr inbounds nuw %struct.UNewTrie2, ptr %58, i32 0, i32 1
  %60 = load i32, ptr %8, align 4, !tbaa !8
  %61 = sext i32 %60 to i64
  %62 = getelementptr inbounds [35488 x i32], ptr %59, i64 0, i64 %61
  %63 = load i32, ptr %62, align 4, !tbaa !8
  store i32 %63, ptr %9, align 4, !tbaa !8
  %64 = load ptr, ptr %5, align 8, !tbaa !24
  %65 = getelementptr inbounds nuw %struct.UNewTrie2, ptr %64, i32 0, i32 2
  %66 = load ptr, ptr %65, align 8, !tbaa !28
  %67 = load i32, ptr %9, align 4, !tbaa !8
  %68 = load i32, ptr %6, align 4, !tbaa !8
  %69 = and i32 %68, 31
  %70 = add nsw i32 %67, %69
  %71 = sext i32 %70 to i64
  %72 = getelementptr inbounds i32, ptr %66, i64 %71
  %73 = load i32, ptr %72, align 4, !tbaa !8
  store i32 %73, ptr %4, align 4
  store i32 1, ptr %10, align 4
  br label %74

74:                                               ; preds = %57, %23
  call void @llvm.lifetime.end.p0(i64 4, ptr %9) #8
  call void @llvm.lifetime.end.p0(i64 4, ptr %8) #8
  %75 = load i32, ptr %4, align 4
  ret i32 %75
}

; Function Attrs: mustprogress uwtable
define i32 @utrie2_get32_77(ptr noundef %0, i32 noundef %1) #0 {
  %3 = alloca i32, align 4
  %4 = alloca ptr, align 8
  %5 = alloca i32, align 4
  store ptr %0, ptr %4, align 8, !tbaa !3
  store i32 %1, ptr %5, align 4, !tbaa !8
  %6 = load ptr, ptr %4, align 8, !tbaa !3
  %7 = getelementptr inbounds nuw %struct.UTrie2, ptr %6, i32 0, i32 1
  %8 = load ptr, ptr %7, align 8, !tbaa !10
  %9 = icmp ne ptr %8, null
  br i1 %9, label %10, label %108

10:                                               ; preds = %2
  %11 = load ptr, ptr %4, align 8, !tbaa !3
  %12 = getelementptr inbounds nuw %struct.UTrie2, ptr %11, i32 0, i32 0
  %13 = load ptr, ptr %12, align 8, !tbaa !16
  %14 = load i32, ptr %5, align 4, !tbaa !8
  %15 = icmp ult i32 %14, 55296
  br i1 %15, label %16, label %31

16:                                               ; preds = %10
  %17 = load ptr, ptr %4, align 8, !tbaa !3
  %18 = getelementptr inbounds nuw %struct.UTrie2, ptr %17, i32 0, i32 0
  %19 = load ptr, ptr %18, align 8, !tbaa !16
  %20 = load i32, ptr %5, align 4, !tbaa !8
  %21 = ashr i32 %20, 5
  %22 = add nsw i32 0, %21
  %23 = sext i32 %22 to i64
  %24 = getelementptr inbounds i16, ptr %19, i64 %23
  %25 = load i16, ptr %24, align 2, !tbaa !17
  %26 = zext i16 %25 to i32
  %27 = shl i32 %26, 2
  %28 = load i32, ptr %5, align 4, !tbaa !8
  %29 = and i32 %28, 31
  %30 = add nsw i32 %27, %29
  br label %102

31:                                               ; preds = %10
  %32 = load i32, ptr %5, align 4, !tbaa !8
  %33 = icmp ule i32 %32, 65535
  br i1 %33, label %34, label %52

34:                                               ; preds = %31
  %35 = load ptr, ptr %4, align 8, !tbaa !3
  %36 = getelementptr inbounds nuw %struct.UTrie2, ptr %35, i32 0, i32 0
  %37 = load ptr, ptr %36, align 8, !tbaa !16
  %38 = load i32, ptr %5, align 4, !tbaa !8
  %39 = icmp sle i32 %38, 56319
  %40 = select i1 %39, i32 320, i32 0
  %41 = load i32, ptr %5, align 4, !tbaa !8
  %42 = ashr i32 %41, 5
  %43 = add nsw i32 %40, %42
  %44 = sext i32 %43 to i64
  %45 = getelementptr inbounds i16, ptr %37, i64 %44
  %46 = load i16, ptr %45, align 2, !tbaa !17
  %47 = zext i16 %46 to i32
  %48 = shl i32 %47, 2
  %49 = load i32, ptr %5, align 4, !tbaa !8
  %50 = and i32 %49, 31
  %51 = add nsw i32 %48, %50
  br label %100

52:                                               ; preds = %31
  %53 = load i32, ptr %5, align 4, !tbaa !8
  %54 = icmp ugt i32 %53, 1114111
  br i1 %54, label %55, label %60

55:                                               ; preds = %52
  %56 = load ptr, ptr %4, align 8, !tbaa !3
  %57 = getelementptr inbounds nuw %struct.UTrie2, ptr %56, i32 0, i32 3
  %58 = load i32, ptr %57, align 8, !tbaa !18
  %59 = add nsw i32 %58, 128
  br label %98

60:                                               ; preds = %52
  %61 = load i32, ptr %5, align 4, !tbaa !8
  %62 = load ptr, ptr %4, align 8, !tbaa !3
  %63 = getelementptr inbounds nuw %struct.UTrie2, ptr %62, i32 0, i32 9
  %64 = load i32, ptr %63, align 4, !tbaa !19
  %65 = icmp sge i32 %61, %64
  br i1 %65, label %66, label %70

66:                                               ; preds = %60
  %67 = load ptr, ptr %4, align 8, !tbaa !3
  %68 = getelementptr inbounds nuw %struct.UTrie2, ptr %67, i32 0, i32 10
  %69 = load i32, ptr %68, align 8, !tbaa !20
  br label %96

70:                                               ; preds = %60
  %71 = load ptr, ptr %4, align 8, !tbaa !3
  %72 = getelementptr inbounds nuw %struct.UTrie2, ptr %71, i32 0, i32 0
  %73 = load ptr, ptr %72, align 8, !tbaa !16
  %74 = load ptr, ptr %4, align 8, !tbaa !3
  %75 = getelementptr inbounds nuw %struct.UTrie2, ptr %74, i32 0, i32 0
  %76 = load ptr, ptr %75, align 8, !tbaa !16
  %77 = load i32, ptr %5, align 4, !tbaa !8
  %78 = ashr i32 %77, 11
  %79 = add nsw i32 2080, %78
  %80 = sext i32 %79 to i64
  %81 = getelementptr inbounds i16, ptr %76, i64 %80
  %82 = load i16, ptr %81, align 2, !tbaa !17
  %83 = zext i16 %82 to i32
  %84 = load i32, ptr %5, align 4, !tbaa !8
  %85 = ashr i32 %84, 5
  %86 = and i32 %85, 63
  %87 = add nsw i32 %83, %86
  %88 = sext i32 %87 to i64
  %89 = getelementptr inbounds i16, ptr %73, i64 %88
  %90 = load i16, ptr %89, align 2, !tbaa !17
  %91 = zext i16 %90 to i32
  %92 = shl i32 %91, 2
  %93 = load i32, ptr %5, align 4, !tbaa !8
  %94 = and i32 %93, 31
  %95 = add nsw i32 %92, %94
  br label %96

96:                                               ; preds = %70, %66
  %97 = phi i32 [ %69, %66 ], [ %95, %70 ]
  br label %98

98:                                               ; preds = %96, %55
  %99 = phi i32 [ %59, %55 ], [ %97, %96 ]
  br label %100

100:                                              ; preds = %98, %34
  %101 = phi i32 [ %51, %34 ], [ %99, %98 ]
  br label %102

102:                                              ; preds = %100, %16
  %103 = phi i32 [ %30, %16 ], [ %101, %100 ]
  %104 = sext i32 %103 to i64
  %105 = getelementptr inbounds i16, ptr %13, i64 %104
  %106 = load i16, ptr %105, align 2, !tbaa !17
  %107 = zext i16 %106 to i32
  store i32 %107, ptr %3, align 4
  br label %219

108:                                              ; preds = %2
  %109 = load ptr, ptr %4, align 8, !tbaa !3
  %110 = getelementptr inbounds nuw %struct.UTrie2, ptr %109, i32 0, i32 2
  %111 = load ptr, ptr %110, align 8, !tbaa !21
  %112 = icmp ne ptr %111, null
  br i1 %112, label %113, label %206

113:                                              ; preds = %108
  %114 = load ptr, ptr %4, align 8, !tbaa !3
  %115 = getelementptr inbounds nuw %struct.UTrie2, ptr %114, i32 0, i32 2
  %116 = load ptr, ptr %115, align 8, !tbaa !21
  %117 = load i32, ptr %5, align 4, !tbaa !8
  %118 = icmp ult i32 %117, 55296
  br i1 %118, label %119, label %134

119:                                              ; preds = %113
  %120 = load ptr, ptr %4, align 8, !tbaa !3
  %121 = getelementptr inbounds nuw %struct.UTrie2, ptr %120, i32 0, i32 0
  %122 = load ptr, ptr %121, align 8, !tbaa !16
  %123 = load i32, ptr %5, align 4, !tbaa !8
  %124 = ashr i32 %123, 5
  %125 = add nsw i32 0, %124
  %126 = sext i32 %125 to i64
  %127 = getelementptr inbounds i16, ptr %122, i64 %126
  %128 = load i16, ptr %127, align 2, !tbaa !17
  %129 = zext i16 %128 to i32
  %130 = shl i32 %129, 2
  %131 = load i32, ptr %5, align 4, !tbaa !8
  %132 = and i32 %131, 31
  %133 = add nsw i32 %130, %132
  br label %201

134:                                              ; preds = %113
  %135 = load i32, ptr %5, align 4, !tbaa !8
  %136 = icmp ule i32 %135, 65535
  br i1 %136, label %137, label %155

137:                                              ; preds = %134
  %138 = load ptr, ptr %4, align 8, !tbaa !3
  %139 = getelementptr inbounds nuw %struct.UTrie2, ptr %138, i32 0, i32 0
  %140 = load ptr, ptr %139, align 8, !tbaa !16
  %141 = load i32, ptr %5, align 4, !tbaa !8
  %142 = icmp sle i32 %141, 56319
  %143 = select i1 %142, i32 320, i32 0
  %144 = load i32, ptr %5, align 4, !tbaa !8
  %145 = ashr i32 %144, 5
  %146 = add nsw i32 %143, %145
  %147 = sext i32 %146 to i64
  %148 = getelementptr inbounds i16, ptr %140, i64 %147
  %149 = load i16, ptr %148, align 2, !tbaa !17
  %150 = zext i16 %149 to i32
  %151 = shl i32 %150, 2
  %152 = load i32, ptr %5, align 4, !tbaa !8
  %153 = and i32 %152, 31
  %154 = add nsw i32 %151, %153
  br label %199

155:                                              ; preds = %134
  %156 = load i32, ptr %5, align 4, !tbaa !8
  %157 = icmp ugt i32 %156, 1114111
  br i1 %157, label %158, label %159

158:                                              ; preds = %155
  br label %197

159:                                              ; preds = %155
  %160 = load i32, ptr %5, align 4, !tbaa !8
  %161 = load ptr, ptr %4, align 8, !tbaa !3
  %162 = getelementptr inbounds nuw %struct.UTrie2, ptr %161, i32 0, i32 9
  %163 = load i32, ptr %162, align 4, !tbaa !19
  %164 = icmp sge i32 %160, %163
  br i1 %164, label %165, label %169

165:                                              ; preds = %159
  %166 = load ptr, ptr %4, align 8, !tbaa !3
  %167 = getelementptr inbounds nuw %struct.UTrie2, ptr %166, i32 0, i32 10
  %168 = load i32, ptr %167, align 8, !tbaa !20
  br label %195

169:                                              ; preds = %159
  %170 = load ptr, ptr %4, align 8, !tbaa !3
  %171 = getelementptr inbounds nuw %struct.UTrie2, ptr %170, i32 0, i32 0
  %172 = load ptr, ptr %171, align 8, !tbaa !16
  %173 = load ptr, ptr %4, align 8, !tbaa !3
  %174 = getelementptr inbounds nuw %struct.UTrie2, ptr %173, i32 0, i32 0
  %175 = load ptr, ptr %174, align 8, !tbaa !16
  %176 = load i32, ptr %5, align 4, !tbaa !8
  %177 = ashr i32 %176, 11
  %178 = add nsw i32 2080, %177
  %179 = sext i32 %178 to i64
  %180 = getelementptr inbounds i16, ptr %175, i64 %179
  %181 = load i16, ptr %180, align 2, !tbaa !17
  %182 = zext i16 %181 to i32
  %183 = load i32, ptr %5, align 4, !tbaa !8
  %184 = ashr i32 %183, 5
  %185 = and i32 %184, 63
  %186 = add nsw i32 %182, %185
  %187 = sext i32 %186 to i64
  %188 = getelementptr inbounds i16, ptr %172, i64 %187
  %189 = load i16, ptr %188, align 2, !tbaa !17
  %190 = zext i16 %189 to i32
  %191 = shl i32 %190, 2
  %192 = load i32, ptr %5, align 4, !tbaa !8
  %193 = and i32 %192, 31
  %194 = add nsw i32 %191, %193
  br label %195

195:                                              ; preds = %169, %165
  %196 = phi i32 [ %168, %165 ], [ %194, %169 ]
  br label %197

197:                                              ; preds = %195, %158
  %198 = phi i32 [ 128, %158 ], [ %196, %195 ]
  br label %199

199:                                              ; preds = %197, %137
  %200 = phi i32 [ %154, %137 ], [ %198, %197 ]
  br label %201

201:                                              ; preds = %199, %119
  %202 = phi i32 [ %133, %119 ], [ %200, %199 ]
  %203 = sext i32 %202 to i64
  %204 = getelementptr inbounds i32, ptr %116, i64 %203
  %205 = load i32, ptr %204, align 4, !tbaa !8
  store i32 %205, ptr %3, align 4
  br label %219

206:                                              ; preds = %108
  %207 = load i32, ptr %5, align 4, !tbaa !8
  %208 = icmp ugt i32 %207, 1114111
  br i1 %208, label %209, label %213

209:                                              ; preds = %206
  %210 = load ptr, ptr %4, align 8, !tbaa !3
  %211 = getelementptr inbounds nuw %struct.UTrie2, ptr %210, i32 0, i32 8
  %212 = load i32, ptr %211, align 8, !tbaa !22
  store i32 %212, ptr %3, align 4
  br label %219

213:                                              ; preds = %206
  %214 = load ptr, ptr %4, align 8, !tbaa !3
  %215 = getelementptr inbounds nuw %struct.UTrie2, ptr %214, i32 0, i32 16
  %216 = load ptr, ptr %215, align 8, !tbaa !23
  %217 = load i32, ptr %5, align 4, !tbaa !8
  %218 = call noundef i32 @_ZL5get32PK9UNewTrie2ia(ptr noundef %216, i32 noundef %217, i8 noundef signext 1)
  store i32 %218, ptr %3, align 4
  br label %219

219:                                              ; preds = %213, %209, %201, %102
  %220 = load i32, ptr %3, align 4
  ret i32 %220
}