; Function Attrs: mustprogress nofree norecurse nosync nounwind willreturn memory(read, inaccessiblemem: none) uwtable
define i32 @utrie2_get32_77(ptr noundef readonly captures(none) %0, i32 noundef %1) local_unnamed_addr #0 {
  %3 = getelementptr inbounds nuw i8, ptr %0, i64 8
  %4 = load ptr, ptr %3, align 8, !tbaa !3
  %.not = icmp eq ptr %4, null
  br i1 %.not, label %66, label %5

5:                                                ; preds = %2
  %6 = load ptr, ptr %0, align 8, !tbaa !13
  %7 = icmp ult i32 %1, 55296
  br i1 %7, label %8, label %17

8:                                                ; preds = %5
  %9 = lshr i32 %1, 5
  %10 = zext nneg i32 %9 to i64
  %11 = getelementptr inbounds nuw i16, ptr %6, i64 %10
  %12 = load i16, ptr %11, align 2, !tbaa !14
  %13 = zext i16 %12 to i32
  %14 = shl nuw nsw i32 %13, 2
  %15 = and i32 %1, 31
  %16 = add nuw nsw i32 %14, %15
  br label %60

17:                                               ; preds = %5
  %18 = icmp ult i32 %1, 65536
  br i1 %18, label %19, label %31

19:                                               ; preds = %17
  %20 = icmp samesign ult i32 %1, 56320
  %21 = select i1 %20, i32 320, i32 0
  %22 = lshr i32 %1, 5
  %23 = add nuw nsw i32 %21, %22
  %24 = zext nneg i32 %23 to i64
  %25 = getelementptr inbounds nuw i16, ptr %6, i64 %24
  %26 = load i16, ptr %25, align 2, !tbaa !14
  %27 = zext i16 %26 to i32
  %28 = shl nuw nsw i32 %27, 2
  %29 = and i32 %1, 31
  %30 = add nuw nsw i32 %28, %29
  br label %60

31:                                               ; preds = %17
  %32 = icmp ugt i32 %1, 1114111
  br i1 %32, label %33, label %37

33:                                               ; preds = %31
  %34 = getelementptr inbounds nuw i8, ptr %0, i64 24
  %35 = load i32, ptr %34, align 8, !tbaa !15
  %36 = add nsw i32 %35, 128
  br label %60

37:                                               ; preds = %31
  %38 = getelementptr inbounds nuw i8, ptr %0, i64 44
  %39 = load i32, ptr %38, align 4, !tbaa !16
  %.not49 = icmp slt i32 %1, %39
  br i1 %.not49, label %43, label %40

40:                                               ; preds = %37
  %41 = getelementptr inbounds nuw i8, ptr %0, i64 48
  %42 = load i32, ptr %41, align 8, !tbaa !17
  br label %60

43:                                               ; preds = %37
  %44 = lshr i32 %1, 11
  %45 = zext nneg i32 %44 to i64
  %46 = getelementptr inbounds nuw i16, ptr %6, i64 %45
  %47 = getelementptr inbounds nuw i8, ptr %46, i64 4160
  %48 = load i16, ptr %47, align 2, !tbaa !14
  %49 = zext i16 %48 to i32
  %50 = lshr i32 %1, 5
  %51 = and i32 %50, 63
  %52 = add nuw nsw i32 %51, %49
  %53 = zext nneg i32 %52 to i64
  %54 = getelementptr inbounds nuw i16, ptr %6, i64 %53
  %55 = load i16, ptr %54, align 2, !tbaa !14
  %56 = zext i16 %55 to i32
  %57 = shl nuw nsw i32 %56, 2
  %58 = and i32 %1, 31
  %59 = add nuw nsw i32 %57, %58
  br label %60

60:                                               ; preds = %19, %40, %43, %33, %8
  %61 = phi i32 [ %16, %8 ], [ %30, %19 ], [ %36, %33 ], [ %42, %40 ], [ %59, %43 ]
  %62 = sext i32 %61 to i64
  %63 = getelementptr inbounds i16, ptr %6, i64 %62
  %64 = load i16, ptr %63, align 2, !tbaa !14
  %65 = zext i16 %64 to i32
  br label %169

66:                                               ; preds = %2
  %67 = getelementptr inbounds nuw i8, ptr %0, i64 16
  %68 = load ptr, ptr %67, align 8, !tbaa !18
  %.not47 = icmp eq ptr %68, null
  br i1 %.not47, label %127, label %69

69:                                               ; preds = %66
  %70 = icmp ult i32 %1, 55296
  br i1 %70, label %71, label %81

71:                                               ; preds = %69
  %72 = load ptr, ptr %0, align 8, !tbaa !13
  %73 = lshr i32 %1, 5
  %74 = zext nneg i32 %73 to i64
  %75 = getelementptr inbounds nuw i16, ptr %72, i64 %74
  %76 = load i16, ptr %75, align 2, !tbaa !14
  %77 = zext i16 %76 to i32
  %78 = shl nuw nsw i32 %77, 2
  %79 = and i32 %1, 31
  %80 = add nuw nsw i32 %78, %79
  br label %122

81:                                               ; preds = %69
  %82 = icmp ult i32 %1, 65536
  br i1 %82, label %83, label %96

83:                                               ; preds = %81
  %84 = load ptr, ptr %0, align 8, !tbaa !13
  %85 = icmp samesign ult i32 %1, 56320
  %86 = select i1 %85, i32 320, i32 0
  %87 = lshr i32 %1, 5
  %88 = add nuw nsw i32 %86, %87
  %89 = zext nneg i32 %88 to i64
  %90 = getelementptr inbounds nuw i16, ptr %84, i64 %89
  %91 = load i16, ptr %90, align 2, !tbaa !14
  %92 = zext i16 %91 to i32
  %93 = shl nuw nsw i32 %92, 2
  %94 = and i32 %1, 31
  %95 = add nuw nsw i32 %93, %94
  br label %122

96:                                               ; preds = %81
  %97 = icmp ugt i32 %1, 1114111
  br i1 %97, label %122, label %98

98:                                               ; preds = %96
  %99 = getelementptr inbounds nuw i8, ptr %0, i64 44
  %100 = load i32, ptr %99, align 4, !tbaa !16
  %.not48 = icmp slt i32 %1, %100
  br i1 %.not48, label %104, label %101

101:                                              ; preds = %98
  %102 = getelementptr inbounds nuw i8, ptr %0, i64 48
  %103 = load i32, ptr %102, align 8, !tbaa !17
  br label %122

104:                                              ; preds = %98
  %105 = load ptr, ptr %0, align 8, !tbaa !13
  %106 = lshr i32 %1, 11
  %107 = zext nneg i32 %106 to i64
  %108 = getelementptr inbounds nuw i16, ptr %105, i64 %107
  %109 = getelementptr inbounds nuw i8, ptr %108, i64 4160
  %110 = load i16, ptr %109, align 2, !tbaa !14
  %111 = zext i16 %110 to i32
  %112 = lshr i32 %1, 5
  %113 = and i32 %112, 63
  %114 = add nuw nsw i32 %113, %111
  %115 = zext nneg i32 %114 to i64
  %116 = getelementptr inbounds nuw i16, ptr %105, i64 %115
  %117 = load i16, ptr %116, align 2, !tbaa !14
  %118 = zext i16 %117 to i32
  %119 = shl nuw nsw i32 %118, 2
  %120 = and i32 %1, 31
  %121 = add nuw nsw i32 %119, %120
  br label %122

122:                                              ; preds = %83, %101, %104, %96, %71
  %123 = phi i32 [ %80, %71 ], [ %95, %83 ], [ 128, %96 ], [ %103, %101 ], [ %121, %104 ]
  %124 = sext i32 %123 to i64
  %125 = getelementptr inbounds i32, ptr %68, i64 %124
  %126 = load i32, ptr %125, align 4, !tbaa !19
  br label %169

127:                                              ; preds = %66
  %128 = icmp ugt i32 %1, 1114111
  br i1 %128, label %129, label %132

129:                                              ; preds = %127
  %130 = getelementptr inbounds nuw i8, ptr %0, i64 40
  %131 = load i32, ptr %130, align 8, !tbaa !20
  br label %169

132:                                              ; preds = %127
  %133 = getelementptr inbounds nuw i8, ptr %0, i64 72
  %134 = load ptr, ptr %133, align 8, !tbaa !21
  %135 = getelementptr inbounds nuw i8, ptr %134, i64 144168
  %136 = load i32, ptr %135, align 8, !tbaa !22
  %.not.i = icmp slt i32 %1, %136
  br i1 %.not.i, label %145, label %137

137:                                              ; preds = %132
  %138 = getelementptr inbounds nuw i8, ptr %134, i64 144128
  %139 = load ptr, ptr %138, align 8, !tbaa !24
  %140 = getelementptr inbounds nuw i8, ptr %134, i64 144152
  %141 = load i32, ptr %140, align 8, !tbaa !25
  %142 = sext i32 %141 to i64
  %143 = getelementptr i32, ptr %139, i64 %142
  %144 = getelementptr i8, ptr %143, i64 -16
  br label %_ZL5get32PK9UNewTrie2ia.exit

145:                                              ; preds = %132
  %146 = and i32 %1, 2096128
  %147 = icmp eq i32 %146, 55296
  br i1 %147, label %148, label %.thread.i

148:                                              ; preds = %145
  %149 = lshr i32 %1, 5
  %150 = add nuw nsw i32 %149, 320
  br label %158

.thread.i:                                        ; preds = %145
  %151 = lshr i32 %1, 11
  %152 = zext nneg i32 %151 to i64
  %153 = getelementptr inbounds nuw [544 x i32], ptr %134, i64 0, i64 %152
  %154 = load i32, ptr %153, align 4, !tbaa !19
  %155 = lshr i32 %1, 5
  %156 = and i32 %155, 63
  %157 = add nsw i32 %154, %156
  br label %158

158:                                              ; preds = %.thread.i, %148
  %.020.i = phi i32 [ %150, %148 ], [ %157, %.thread.i ]
  %159 = getelementptr inbounds nuw i8, ptr %134, i64 2176
  %160 = sext i32 %.020.i to i64
  %161 = getelementptr inbounds [35488 x i32], ptr %159, i64 0, i64 %160
  %162 = load i32, ptr %161, align 4, !tbaa !19
  %163 = getelementptr inbounds nuw i8, ptr %134, i64 144128
  %164 = load ptr, ptr %163, align 8, !tbaa !24
  %165 = and i32 %1, 31
  %166 = add nsw i32 %162, %165
  %167 = sext i32 %166 to i64
  %168 = getelementptr inbounds i32, ptr %164, i64 %167
  br label %_ZL5get32PK9UNewTrie2ia.exit

_ZL5get32PK9UNewTrie2ia.exit:                     ; preds = %137, %158
  %.0.in.i = phi ptr [ %144, %137 ], [ %168, %158 ]
  %.0.i = load i32, ptr %.0.in.i, align 4, !tbaa !19
  br label %169

169:                                              ; preds = %_ZL5get32PK9UNewTrie2ia.exit, %129, %122, %60
  %.0 = phi i32 [ %65, %60 ], [ %126, %122 ], [ %131, %129 ], [ %.0.i, %_ZL5get32PK9UNewTrie2ia.exit ]
  ret i32 %.0
}